target datalayout = "e-m:e-p270:32:32-p271:32:32-p272:64:64-i64:64-i128:128-f80:128-n8:16:32:64-S128"
target triple = "x86_64-pc-linux-gnu"

%"struct.open_spiel::GameType" = type <{ %"class.std::__cxx11::basic_string", %"class.std::__cxx11::basic_string", i32, i32, i32, i32, i32, i32, i32, i8, i8, i8, i8, %"class.std::map", i8, i8, [6 x i8] }>
%"class.std::__cxx11::basic_string" = type { %"struct.std::__cxx11::basic_string<char>::_Alloc_hider", i64, %union.anon }
%"struct.std::__cxx11::basic_string<char>::_Alloc_hider" = type { ptr }
%union.anon = type { i64, [8 x i8] }
%"class.std::map" = type { %"class.std::_Rb_tree" }
%"class.std::_Rb_tree" = type { %"struct.std::_Rb_tree<std::__cxx11::basic_string<char>, std::pair<const std::__cxx11::basic_string<char>, open_spiel::GameParameter>, std::_Select1st<std::pair<const std::__cxx11::basic_string<char>, open_spiel::GameParameter>>, std::less<std::__cxx11::basic_string<char>>>::_Rb_tree_impl" }
%"struct.std::_Rb_tree<std::__cxx11::basic_string<char>, std::pair<const std::__cxx11::basic_string<char>, open_spiel::GameParameter>, std::_Select1st<std::pair<const std::__cxx11::basic_string<char>, open_spiel::GameParameter>>, std::less<std::__cxx11::basic_string<char>>>::_Rb_tree_impl" = type { [8 x i8], %"struct.std::_Rb_tree_header" }
%"struct.std::_Rb_tree_header" = type { %"struct.std::_Rb_tree_node_base", i64 }
%"struct.std::_Rb_tree_node_base" = type { i32, ptr, ptr, ptr }
%"class.open_spiel::battleship::BattleshipGame" = type { %"class.open_spiel::Game", %"struct.open_spiel::battleship::BattleshipConfiguration" }
%"class.open_spiel::Game" = type { ptr, %"class.std::enable_shared_from_this", %"struct.open_spiel::GameType", %"class.std::map", %"class.std::map", %"class.absl::debian2::Mutex" }
%"class.std::enable_shared_from_this" = type { %"class.std::weak_ptr" }
%"class.std::weak_ptr" = type { %"class.std::__weak_ptr" }
%"class.std::__weak_ptr" = type { ptr, %"class.std::__weak_count" }
%"class.std::__weak_count" = type { ptr }
%"class.absl::debian2::Mutex" = type { %"struct.std::atomic" }
%"struct.std::atomic" = type { %"struct.std::__atomic_base" }
%"struct.std::__atomic_base" = type { i64 }
%"struct.open_spiel::battleship::BattleshipConfiguration" = type { i32, i32, %"class.std::vector.14", i32, i8, double }
%"class.std::vector.14" = type { %"struct.std::_Vector_base.15" }
%"struct.std::_Vector_base.15" = type { %"struct.std::_Vector_base<open_spiel::battleship::Ship, std::allocator<open_spiel::battleship::Ship>>::_Vector_impl" }
%"struct.std::_Vector_base<open_spiel::battleship::Ship, std::allocator<open_spiel::battleship::Ship>>::_Vector_impl" = type { %"struct.std::_Vector_base<open_spiel::battleship::Ship, std::allocator<open_spiel::battleship::Ship>>::_Vector_impl_data" }
%"struct.std::_Vector_base<open_spiel::battleship::Ship, std::allocator<open_spiel::battleship::Ship>>::_Vector_impl_data" = type { ptr, ptr, ptr }

; Function Attrs: mustprogress nounwind uwtable
define noundef i32 @_ZNK10open_spiel10battleship14BattleshipGame18NumDistinctActionsEv(ptr noundef nonnull align 8 dereferenceable(328) %0) unnamed_addr #5 align 2 {
  %2 = alloca ptr, align 8
  store ptr %0, ptr %2, align 8
  %3 = load ptr, ptr %2, align 8
  %4 = getelementptr inbounds nuw %"class.open_spiel::battleship::BattleshipGame", ptr %3, i32 0, i32 1
  %5 = getelementptr inbounds nuw %"struct.open_spiel::battleship::BattleshipConfiguration", ptr %4, i32 0, i32 0
  %6 = load i32, ptr %5, align 8
  %7 = mul nsw i32 3, %6
  %8 = getelementptr inbounds nuw %"class.open_spiel::battleship::BattleshipGame", ptr %3, i32 0, i32 1
  %9 = getelementptr inbounds nuw %"struct.open_spiel::battleship::BattleshipConfiguration", ptr %8, i32 0, i32 1
  %10 = load i32, ptr %9, align 4
  %11 = mul nsw i32 %7, %10
  ret i32 %11
}