; Function Attrs: mustprogress nofree norecurse nosync nounwind willreturn memory(argmem: read) uwtable
define noundef i32 @_ZNK10open_spiel10battleship14BattleshipGame18NumDistinctActionsEv(ptr noundef nonnull readonly align 8 captures(none) dereferenceable(328) %0) unnamed_addr #11 align 2 {
  %2 = getelementptr inbounds nuw i8, ptr %0, i64 280
  %3 = load i32, ptr %2, align 8
  %4 = mul nsw i32 %3, 3
  %5 = getelementptr inbounds nuw i8, ptr %0, i64 284
  %6 = load i32, ptr %5, align 4
  %7 = mul nsw i32 %4, %6
  ret i32 %7
}